target datalayout = "e-m:e-p270:32:32-p271:32:32-p272:64:64-i64:64-i128:128-f80:128-n8:16:32:64-S128"
target triple = "x86_64-pc-linux-gnu"

%struct._generic_N_Vector = type { ptr, ptr, ptr }
%struct._N_VectorContent_Serial = type { i64, i32, ptr }

; Function Attrs: nounwind uwtable
define internal void @SetInitialProfiles(ptr noundef %0, ptr noundef %1) #0 {
  %3 = alloca ptr, align 8
  %4 = alloca ptr, align 8
  %5 = alloca i32, align 4
  %6 = alloca i32, align 4
  %7 = alloca i32, align 4
  %8 = alloca ptr, align 8
  %9 = alloca ptr, align 8
  %10 = alloca [6 x double], align 16
  %11 = alloca [6 x double], align 16
  store ptr %0, ptr %3, align 8, !tbaa !4
  store ptr %1, ptr %4, align 8, !tbaa !4
  call void @llvm.lifetime.start.p0(i64 4, ptr %5) #6
  call void @llvm.lifetime.start.p0(i64 4, ptr %6) #6
  call void @llvm.lifetime.start.p0(i64 4, ptr %7) #6
  call void @llvm.lifetime.start.p0(i64 8, ptr %8) #6
  call void @llvm.lifetime.start.p0(i64 8, ptr %9) #6
  call void @llvm.lifetime.start.p0(i64 48, ptr %10) #6
  call void @llvm.lifetime.start.p0(i64 48, ptr %11) #6
  store i32 0, ptr %5, align 4, !tbaa !12
  br label %12

12:                                               ; preds = %22, %2
  %13 = load i32, ptr %5, align 4, !tbaa !12
  %14 = icmp slt i32 %13, 3
  br i1 %14, label %15, label %25

15:                                               ; preds = %12
  %16 = load i32, ptr %5, align 4, !tbaa !12
  %17 = sext i32 %16 to i64
  %18 = getelementptr inbounds [6 x double], ptr %10, i64 0, i64 %17
  store double 1.000000e+00, ptr %18, align 8, !tbaa !22
  %19 = load i32, ptr %5, align 4, !tbaa !12
  %20 = sext i32 %19 to i64
  %21 = getelementptr inbounds [6 x double], ptr %11, i64 0, i64 %20
  store double 1.000000e+00, ptr %21, align 8, !tbaa !22
  br label %22

22:                                               ; preds = %15
  %23 = load i32, ptr %5, align 4, !tbaa !12
  %24 = add nsw i32 %23, 1
  store i32 %24, ptr %5, align 4, !tbaa !12
  br label %12

25:                                               ; preds = %12
  store i32 3, ptr %5, align 4, !tbaa !12
  br label %26

26:                                               ; preds = %36, %25
  %27 = load i32, ptr %5, align 4, !tbaa !12
  %28 = icmp slt i32 %27, 6
  br i1 %28, label %29, label %39

29:                                               ; preds = %26
  %30 = load i32, ptr %5, align 4, !tbaa !12
  %31 = sext i32 %30 to i64
  %32 = getelementptr inbounds [6 x double], ptr %10, i64 0, i64 %31
  store double 3.000000e+04, ptr %32, align 8, !tbaa !22
  %33 = load i32, ptr %5, align 4, !tbaa !12
  %34 = sext i32 %33 to i64
  %35 = getelementptr inbounds [6 x double], ptr %11, i64 0, i64 %34
  store double 1.000000e-05, ptr %35, align 8, !tbaa !22
  br label %36

36:                                               ; preds = %29
  %37 = load i32, ptr %5, align 4, !tbaa !12
  %38 = add nsw i32 %37, 1
  store i32 %38, ptr %5, align 4, !tbaa !12
  br label %26

39:                                               ; preds = %26
  store i32 0, ptr %7, align 4, !tbaa !12
  br label %40

40:                                               ; preds = %100, %39
  %41 = load i32, ptr %7, align 4, !tbaa !12
  %42 = icmp slt i32 %41, 8
  br i1 %42, label %43, label %103

43:                                               ; preds = %40
  store i32 0, ptr %6, align 4, !tbaa !12
  br label %44

44:                                               ; preds = %96, %43
  %45 = load i32, ptr %6, align 4, !tbaa !12
  %46 = icmp slt i32 %45, 8
  br i1 %46, label %47, label %99

47:                                               ; preds = %44
  %48 = load ptr, ptr %3, align 8, !tbaa !4
  %49 = getelementptr inbounds nuw %struct._generic_N_Vector, ptr %48, i32 0, i32 0
  %50 = load ptr, ptr %49, align 8, !tbaa !48
  %51 = getelementptr inbounds nuw %struct._N_VectorContent_Serial, ptr %50, i32 0, i32 2
  %52 = load ptr, ptr %51, align 8, !tbaa !51
  %53 = load i32, ptr %6, align 4, !tbaa !12
  %54 = mul nsw i32 %53, 6
  %55 = load i32, ptr %7, align 4, !tbaa !12
  %56 = mul nsw i32 %55, 48
  %57 = add nsw i32 %54, %56
  %58 = sext i32 %57 to i64
  %59 = getelementptr inbounds double, ptr %52, i64 %58
  store ptr %59, ptr %8, align 8, !tbaa !47
  %60 = load ptr, ptr %4, align 8, !tbaa !4
  %61 = getelementptr inbounds nuw %struct._generic_N_Vector, ptr %60, i32 0, i32 0
  %62 = load ptr, ptr %61, align 8, !tbaa !48
  %63 = getelementptr inbounds nuw %struct._N_VectorContent_Serial, ptr %62, i32 0, i32 2
  %64 = load ptr, ptr %63, align 8, !tbaa !51
  %65 = load i32, ptr %6, align 4, !tbaa !12
  %66 = mul nsw i32 %65, 6
  %67 = load i32, ptr %7, align 4, !tbaa !12
  %68 = mul nsw i32 %67, 48
  %69 = add nsw i32 %66, %68
  %70 = sext i32 %69 to i64
  %71 = getelementptr inbounds double, ptr %64, i64 %70
  store ptr %71, ptr %9, align 8, !tbaa !47
  store i32 0, ptr %5, align 4, !tbaa !12
  br label %72

72:                                               ; preds = %92, %47
  %73 = load i32, ptr %5, align 4, !tbaa !12
  %74 = icmp slt i32 %73, 6
  br i1 %74, label %75, label %95

75:                                               ; preds = %72
  %76 = load i32, ptr %5, align 4, !tbaa !12
  %77 = sext i32 %76 to i64
  %78 = getelementptr inbounds [6 x double], ptr %10, i64 0, i64 %77
  %79 = load double, ptr %78, align 8, !tbaa !22
  %80 = load ptr, ptr %8, align 8, !tbaa !47
  %81 = load i32, ptr %5, align 4, !tbaa !12
  %82 = sext i32 %81 to i64
  %83 = getelementptr inbounds double, ptr %80, i64 %82
  store double %79, ptr %83, align 8, !tbaa !22
  %84 = load i32, ptr %5, align 4, !tbaa !12
  %85 = sext i32 %84 to i64
  %86 = getelementptr inbounds [6 x double], ptr %11, i64 0, i64 %85
  %87 = load double, ptr %86, align 8, !tbaa !22
  %88 = load ptr, ptr %9, align 8, !tbaa !47
  %89 = load i32, ptr %5, align 4, !tbaa !12
  %90 = sext i32 %89 to i64
  %91 = getelementptr inbounds double, ptr %88, i64 %90
  store double %87, ptr %91, align 8, !tbaa !22
  br label %92

92:                                               ; preds = %75
  %93 = load i32, ptr %5, align 4, !tbaa !12
  %94 = add nsw i32 %93, 1
  store i32 %94, ptr %5, align 4, !tbaa !12
  br label %72

95:                                               ; preds = %72
  br label %96

96:                                               ; preds = %95
  %97 = load i32, ptr %6, align 4, !tbaa !12
  %98 = add nsw i32 %97, 1
  store i32 %98, ptr %6, align 4, !tbaa !12
  br label %44

99:                                               ; preds = %44
  br label %100

100:                                              ; preds = %99
  %101 = load i32, ptr %7, align 4, !tbaa !12
  %102 = add nsw i32 %101, 1
  store i32 %102, ptr %7, align 4, !tbaa !12
  br label %40

103:                                              ; preds = %40
  call void @llvm.lifetime.end.p0(i64 48, ptr %11) #6
  call void @llvm.lifetime.end.p0(i64 48, ptr %10) #6
  call void @llvm.lifetime.end.p0(i64 8, ptr %9) #6
  call void @llvm.lifetime.end.p0(i64 8, ptr %8) #6
  call void @llvm.lifetime.end.p0(i64 4, ptr %7) #6
  call void @llvm.lifetime.end.p0(i64 4, ptr %6) #6
  call void @llvm.lifetime.end.p0(i64 4, ptr %5) #6
  ret void
}