; Function Attrs: nofree norecurse nosync nounwind memory(readwrite, inaccessiblemem: none) uwtable
define internal fastcc void @SetInitialProfiles(ptr noundef readonly captures(none) %0, ptr noundef readonly captures(none) %1) unnamed_addr #3 {
  %3 = alloca [6 x double], align 16
  %4 = alloca [6 x double], align 16
  call void @llvm.lifetime.start.p0(i64 48, ptr nonnull %3) #10
  call void @llvm.lifetime.start.p0(i64 48, ptr nonnull %4) #10
  br label %5

5:                                                ; preds = %2, %5
  %indvars.iv = phi i64 [ 0, %2 ], [ %indvars.iv.next, %5 ]
  %6 = getelementptr inbounds nuw [6 x double], ptr %3, i64 0, i64 %indvars.iv
  store double 1.000000e+00, ptr %6, align 8, !tbaa !33
  %7 = getelementptr inbounds nuw [6 x double], ptr %4, i64 0, i64 %indvars.iv
  store double 1.000000e+00, ptr %7, align 8, !tbaa !33
  %indvars.iv.next = add nuw nsw i64 %indvars.iv, 1
  %exitcond.not = icmp eq i64 %indvars.iv.next, 3
  br i1 %exitcond.not, label %.preheader28, label %5

.preheader27:                                     ; preds = %.preheader28
  %8 = load ptr, ptr %0, align 8, !tbaa !38
  %9 = getelementptr inbounds nuw i8, ptr %8, i64 16
  %10 = load ptr, ptr %9, align 8, !tbaa !41
  %11 = load ptr, ptr %1, align 8, !tbaa !38
  %12 = getelementptr inbounds nuw i8, ptr %11, i64 16
  %13 = load ptr, ptr %12, align 8, !tbaa !41
  br label %.preheader

.preheader28:                                     ; preds = %5, %.preheader28
  %indvars.iv35 = phi i64 [ %indvars.iv.next36, %.preheader28 ], [ 3, %5 ]
  %14 = getelementptr inbounds nuw [6 x double], ptr %3, i64 0, i64 %indvars.iv35
  store double 3.000000e+04, ptr %14, align 8, !tbaa !33
  %15 = getelementptr inbounds nuw [6 x double], ptr %4, i64 0, i64 %indvars.iv35
  store double 1.000000e-05, ptr %15, align 8, !tbaa !33
  %indvars.iv.next36 = add nuw nsw i64 %indvars.iv35, 1
  %exitcond38.not = icmp eq i64 %indvars.iv.next36, 6
  br i1 %exitcond38.not, label %.preheader27, label %.preheader28

.preheader:                                       ; preds = %.preheader27, %30
  %indvars.iv51 = phi i64 [ 0, %.preheader27 ], [ %indvars.iv.next52, %30 ]
  %16 = mul nuw nsw i64 %indvars.iv51, 48
  br label %17

17:                                               ; preds = %.preheader, %29
  %indvars.iv47 = phi i64 [ 0, %.preheader ], [ %indvars.iv.next48, %29 ]
  %18 = mul nuw nsw i64 %indvars.iv47, 6
  %19 = add nuw nsw i64 %18, %16
  %20 = getelementptr inbounds nuw double, ptr %10, i64 %19
  %21 = getelementptr inbounds nuw double, ptr %13, i64 %19
  br label %22

22:                                               ; preds = %17, %22
  %indvars.iv43 = phi i64 [ 0, %17 ], [ %indvars.iv.next44, %22 ]
  %23 = getelementptr inbounds nuw [6 x double], ptr %3, i64 0, i64 %indvars.iv43
  %24 = load double, ptr %23, align 8, !tbaa !33
  %25 = getelementptr inbounds nuw double, ptr %20, i64 %indvars.iv43
  store double %24, ptr %25, align 8, !tbaa !33
  %26 = getelementptr inbounds nuw [6 x double], ptr %4, i64 0, i64 %indvars.iv43
  %27 = load double, ptr %26, align 8, !tbaa !33
  %28 = getelementptr inbounds nuw double, ptr %21, i64 %indvars.iv43
  store double %27, ptr %28, align 8, !tbaa !33
  %indvars.iv.next44 = add nuw nsw i64 %indvars.iv43, 1
  %exitcond46.not = icmp eq i64 %indvars.iv.next44, 6
  br i1 %exitcond46.not, label %29, label %22

29:                                               ; preds = %22
  %indvars.iv.next48 = add nuw nsw i64 %indvars.iv47, 1
  %exitcond50.not = icmp eq i64 %indvars.iv.next48, 8
  br i1 %exitcond50.not, label %30, label %17

30:                                               ; preds = %29
  %indvars.iv.next52 = add nuw nsw i64 %indvars.iv51, 1
  %exitcond54.not = icmp eq i64 %indvars.iv.next52, 8
  br i1 %exitcond54.not, label %31, label %.preheader

31:                                               ; preds = %30
  call void @llvm.lifetime.end.p0(i64 48, ptr nonnull %4) #10
  call void @llvm.lifetime.end.p0(i64 48, ptr nonnull %3) #10
  ret void
}